target datalayout = "e-m:e-p270:32:32-p271:32:32-p272:64:64-i64:64-i128:128-f80:128-n8:16:32:64-S128"
target triple = "x86_64-pc-linux-gnu"

%"class.duckdb::BssEncoder" = type { i64, i64, i64, %"class.duckdb::AllocatedData" }
%"class.duckdb::AllocatedData" = type { %"class.duckdb::optional_ptr", ptr, i64 }
%"class.duckdb::optional_ptr" = type { ptr }

; Function Attrs: mustprogress nounwind uwtable
define linkonce_odr noundef ptr @_ZN6duckdb13AllocatedData3getEv(ptr noundef nonnull align 8 dereferenceable(24) %0) #1 comdat align 2 {
  %2 = alloca ptr, align 8
  store ptr %0, ptr %2, align 8, !tbaa !89
  %3 = load ptr, ptr %2, align 8
  %4 = getelementptr inbounds nuw %"class.duckdb::AllocatedData", ptr %3, i32 0, i32 1
  %5 = load ptr, ptr %4, align 8, !tbaa !193
  ret ptr %5
}

; Function Attrs: mustprogress nounwind uwtable
define linkonce_odr void @_ZN6duckdb10BssEncoder10WriteValueIdEEvRKT_(ptr noundef nonnull align 8 dereferenceable(48) %0, ptr noundef nonnull align 8 dereferenceable(8) %1) #1 comdat align 2 {
  %3 = alloca ptr, align 8
  %4 = alloca ptr, align 8
  %5 = alloca i64, align 8
  store ptr %0, ptr %3, align 8, !tbaa !3
  store ptr %1, ptr %4, align 8, !tbaa !22
  %6 = load ptr, ptr %3, align 8
  call void @llvm.lifetime.start.p0(i64 8, ptr %5) #18
  store i64 0, ptr %5, align 8, !tbaa !10
  br label %7

7:                                                ; preds = %26, %2
  %8 = load i64, ptr %5, align 8, !tbaa !10
  %9 = icmp ult i64 %8, 8
  br i1 %9, label %11, label %10

10:                                               ; preds = %7
  call void @llvm.lifetime.end.p0(i64 8, ptr %5) #18
  br label %29

11:                                               ; preds = %7
  %12 = load ptr, ptr %4, align 8, !tbaa !22
  %13 = load i64, ptr %5, align 8, !tbaa !10
  %14 = getelementptr inbounds nuw i8, ptr %12, i64 %13
  %15 = load i8, ptr %14, align 1, !tbaa !12
  %16 = getelementptr inbounds nuw %"class.duckdb::BssEncoder", ptr %6, i32 0, i32 3
  %17 = call noundef ptr @_ZN6duckdb13AllocatedData3getEv(ptr noundef nonnull align 8 dereferenceable(24) %16)
  %18 = load i64, ptr %5, align 8, !tbaa !10
  %19 = getelementptr inbounds nuw %"class.duckdb::BssEncoder", ptr %6, i32 0, i32 0
  %20 = load i64, ptr %19, align 8, !tbaa !13
  %21 = mul i64 %18, %20
  %22 = getelementptr inbounds nuw %"class.duckdb::BssEncoder", ptr %6, i32 0, i32 2
  %23 = load i64, ptr %22, align 8, !tbaa !19
  %24 = add i64 %21, %23
  %25 = getelementptr inbounds nuw i8, ptr %17, i64 %24
  store i8 %15, ptr %25, align 1, !tbaa !12
  br label %26

26:                                               ; preds = %11
  %27 = load i64, ptr %5, align 8, !tbaa !10
  %28 = add i64 %27, 1
  store i64 %28, ptr %5, align 8, !tbaa !10
  br label %7, !llvm.loop !24

29:                                               ; preds = %10
  %30 = getelementptr inbounds nuw %"class.duckdb::BssEncoder", ptr %6, i32 0, i32 2
  %31 = load i64, ptr %30, align 8, !tbaa !19
  %32 = add i64 %31, 1
  store i64 %32, ptr %30, align 8, !tbaa !19
  ret void
}

; Function Attrs: mustprogress uwtable
define void @_ZN6duckdb11bss_encoder10WriteValueIdEEvRNS_10BssEncoderERKT_(ptr noundef nonnull align 8 dereferenceable(48) %0, ptr noundef nonnull align 8 dereferenceable(8) %1) #0 {
  %3 = alloca ptr, align 8
  %4 = alloca ptr, align 8
  store ptr %0, ptr %3, align 8, !tbaa !3
  store ptr %1, ptr %4, align 8, !tbaa !22
  %5 = load ptr, ptr %3, align 8, !tbaa !3
  %6 = load ptr, ptr %4, align 8, !tbaa !22
  call void @_ZN6duckdb10BssEncoder10WriteValueIdEEvRKT_(ptr noundef nonnull align 8 dereferenceable(48) %5, ptr noundef nonnull align 8 dereferenceable(8) %6)
  ret void
}